; Function Attrs: nounwind uwtable
define dso_local noundef ptr @makeStringConst(ptr noundef %0, i32 noundef %1) local_unnamed_addr #0 {
  %3 = tail call noundef ptr @palloc0(i64 noundef 32) #7
  store i32 72, ptr %3, align 4
  %4 = getelementptr inbounds nuw i8, ptr %3, i64 8
  store i32 467, ptr %4, align 8
  %5 = getelementptr inbounds nuw i8, ptr %3, i64 16
  store ptr %0, ptr %5, align 8
  %6 = getelementptr inbounds nuw i8, ptr %3, i64 28
  store i32 %1, ptr %6, align 4
  ret ptr %3
}